target datalayout = "e-m:e-p270:32:32-p271:32:32-p272:64:64-i64:64-i128:128-f80:128-n8:16:32:64-S128"
target triple = "x86_64-pc-linux-gnu"

%"class.nanogui::Label" = type { %"class.nanogui::Widget.base", %"class.std::__cxx11::basic_string", %"class.std::__cxx11::basic_string", %"class.nanogui::Color" }
%"class.nanogui::Widget.base" = type <{ %"class.nanogui::Object.base", [4 x i8], ptr, %"class.nanogui::ref", %"class.nanogui::ref.0", %"struct.nanogui::Array", %"struct.nanogui::Array", %"struct.nanogui::Array", %"class.std::vector", i8, i8, i8, i8, [4 x i8], %"class.std::__cxx11::basic_string", i32, float, i32 }>
%"class.nanogui::Object.base" = type <{ ptr, %"struct.std::atomic" }>
%"struct.std::atomic" = type { %"struct.std::__atomic_base" }
%"struct.std::__atomic_base" = type { i32 }
%"class.nanogui::ref" = type { ptr }
%"class.nanogui::ref.0" = type { ptr }
%"struct.nanogui::Array" = type { [2 x i32] }
%"class.std::vector" = type { %"struct.std::_Vector_base" }
%"struct.std::_Vector_base" = type { %"struct.std::_Vector_base<nanogui::Widget *, std::allocator<nanogui::Widget *>>::_Vector_impl" }
%"struct.std::_Vector_base<nanogui::Widget *, std::allocator<nanogui::Widget *>>::_Vector_impl" = type { %"struct.std::_Vector_base<nanogui::Widget *, std::allocator<nanogui::Widget *>>::_Vector_impl_data" }
%"struct.std::_Vector_base<nanogui::Widget *, std::allocator<nanogui::Widget *>>::_Vector_impl_data" = type { ptr, ptr, ptr }
%"class.std::__cxx11::basic_string" = type { %"struct.std::__cxx11::basic_string<char>::_Alloc_hider", i64, %union.anon }
%"struct.std::__cxx11::basic_string<char>::_Alloc_hider" = type { ptr }
%union.anon = type { i64, [8 x i8] }
%"class.nanogui::Color" = type { %"struct.nanogui::Array.4" }
%"struct.nanogui::Array.4" = type { [4 x float] }
%"class.nanogui::Widget" = type <{ %"class.nanogui::Object.base", [4 x i8], ptr, %"class.nanogui::ref", %"class.nanogui::ref.0", %"struct.nanogui::Array", %"struct.nanogui::Array", %"struct.nanogui::Array", %"class.std::vector", i8, i8, i8, i8, [4 x i8], %"class.std::__cxx11::basic_string", i32, float, i32, [4 x i8] }>
%struct.NVGcolor = type { %union.anon.5 }
%union.anon.5 = type { [4 x float] }

; Function Attrs: mustprogress nounwind uwtable
define linkonce_odr hidden noundef nonnull align 4 dereferenceable(4) ptr @_ZN7nanogui5ArrayIiLm2EE1yILm2ETnNSt9enable_ifIXgeT_Li2EEiE4typeELi0EEERiv(ptr noundef nonnull align 4 dereferenceable(8) %0) #2 comdat align 2 {
  %2 = alloca ptr, align 8
  store ptr %0, ptr %2, align 8
  %3 = load ptr, ptr %2, align 8
  %4 = getelementptr inbounds %"struct.nanogui::Array", ptr %3, i32 0, i32 0
  %5 = getelementptr inbounds [2 x i32], ptr %4, i64 0, i64 1
  ret ptr %5
}

; Function Attrs: mustprogress nounwind uwtable
define linkonce_odr hidden noundef nonnull align 4 dereferenceable(4) ptr @_ZN7nanogui5ArrayIiLm2EE1xILm2ETnNSt9enable_ifIXgeT_Li1EEiE4typeELi0EEERiv(ptr noundef nonnull align 4 dereferenceable(8) %0) #2 comdat align 2 {
  %2 = alloca ptr, align 8
  store ptr %0, ptr %2, align 8
  %3 = load ptr, ptr %2, align 8
  %4 = getelementptr inbounds %"struct.nanogui::Array", ptr %3, i32 0, i32 0
  %5 = getelementptr inbounds [2 x i32], ptr %4, i64 0, i64 0
  ret ptr %5
}

; Function Attrs: mustprogress nounwind uwtable
define linkonce_odr hidden noundef nonnull align 4 dereferenceable(16) ptr @_ZNK7nanogui5ColorcvRK8NVGcolorEv(ptr noundef nonnull align 4 dereferenceable(16) %0) #2 comdat align 2 {
  %2 = alloca ptr, align 8
  store ptr %0, ptr %2, align 8
  %3 = load ptr, ptr %2, align 8
  %4 = getelementptr inbounds %"struct.nanogui::Array.4", ptr %3, i32 0, i32 0
  %5 = getelementptr inbounds [4 x float], ptr %4, i64 0, i64 0
  ret ptr %5
}

; Function Attrs: mustprogress uwtable
define hidden void @_ZN7nanogui5Label4drawEP10NVGcontext(ptr noundef nonnull align 8 dereferenceable(224) %0, ptr noundef %1) unnamed_addr #5 align 2 {
  %3 = alloca ptr, align 8
  %4 = alloca ptr, align 8
  %5 = alloca %struct.NVGcolor, align 4
  store ptr %0, ptr %3, align 8
  store ptr %1, ptr %4, align 8
  %6 = load ptr, ptr %3, align 8
  %7 = load ptr, ptr %4, align 8
  call void @_ZN7nanogui6Widget4drawEP10NVGcontext(ptr noundef nonnull align 8 dereferenceable(140) %6, ptr noundef %7)
  %8 = load ptr, ptr %4, align 8
  %9 = getelementptr inbounds %"class.nanogui::Label", ptr %6, i32 0, i32 2
  %10 = call noundef ptr @_ZNKSt7__cxx1112basic_stringIcSt11char_traitsIcESaIcEE5c_strEv(ptr noundef nonnull align 8 dereferenceable(32) %9) #8
  call void @nvgFontFace(ptr noundef %8, ptr noundef %10)
  %11 = load ptr, ptr %4, align 8
  %12 = call noundef i32 @_ZNK7nanogui6Widget9font_sizeEv(ptr noundef nonnull align 8 dereferenceable(140) %6)
  %13 = sitofp i32 %12 to float
  call void @nvgFontSize(ptr noundef %11, float noundef %13)
  %14 = load ptr, ptr %4, align 8
  %15 = getelementptr inbounds %"class.nanogui::Label", ptr %6, i32 0, i32 3
  %16 = call noundef nonnull align 4 dereferenceable(16) ptr @_ZNK7nanogui5ColorcvRK8NVGcolorEv(ptr noundef nonnull align 4 dereferenceable(16) %15)
  call void @llvm.memcpy.p0.p0.i64(ptr align 4 %5, ptr align 4 %16, i64 16, i1 false)
  %17 = getelementptr inbounds { <2 x float>, <2 x float> }, ptr %5, i32 0, i32 0
  %18 = load <2 x float>, ptr %17, align 4
  %19 = getelementptr inbounds { <2 x float>, <2 x float> }, ptr %5, i32 0, i32 1
  %20 = load <2 x float>, ptr %19, align 4
  call void @nvgFillColor(ptr noundef %14, <2 x float> %18, <2 x float> %20)
  %21 = getelementptr inbounds %"class.nanogui::Widget", ptr %6, i32 0, i32 7
  %22 = call noundef nonnull align 4 dereferenceable(4) ptr @_ZN7nanogui5ArrayIiLm2EE1xILm2ETnNSt9enable_ifIXgeT_Li1EEiE4typeELi0EEERiv(ptr noundef nonnull align 4 dereferenceable(8) %21)
  %23 = load i32, ptr %22, align 4
  %24 = icmp sgt i32 %23, 0
  br i1 %24, label %25, label %42

25:                                               ; preds = %2
  %26 = load ptr, ptr %4, align 8
  call void @nvgTextAlign(ptr noundef %26, i32 noundef 9)
  %27 = load ptr, ptr %4, align 8
  %28 = getelementptr inbounds %"class.nanogui::Widget", ptr %6, i32 0, i32 5
  %29 = call noundef nonnull align 4 dereferenceable(4) ptr @_ZN7nanogui5ArrayIiLm2EE1xILm2ETnNSt9enable_ifIXgeT_Li1EEiE4typeELi0EEERiv(ptr noundef nonnull align 4 dereferenceable(8) %28)
  %30 = load i32, ptr %29, align 4
  %31 = sitofp i32 %30 to float
  %32 = getelementptr inbounds %"class.nanogui::Widget", ptr %6, i32 0, i32 5
  %33 = call noundef nonnull align 4 dereferenceable(4) ptr @_ZN7nanogui5ArrayIiLm2EE1yILm2ETnNSt9enable_ifIXgeT_Li2EEiE4typeELi0EEERiv(ptr noundef nonnull align 4 dereferenceable(8) %32)
  %34 = load i32, ptr %33, align 4
  %35 = sitofp i32 %34 to float
  %36 = getelementptr inbounds %"class.nanogui::Widget", ptr %6, i32 0, i32 7
  %37 = call noundef nonnull align 4 dereferenceable(4) ptr @_ZN7nanogui5ArrayIiLm2EE1xILm2ETnNSt9enable_ifIXgeT_Li1EEiE4typeELi0EEERiv(ptr noundef nonnull align 4 dereferenceable(8) %36)
  %38 = load i32, ptr %37, align 4
  %39 = sitofp i32 %38 to float
  %40 = getelementptr inbounds %"class.nanogui::Label", ptr %6, i32 0, i32 1
  %41 = call noundef ptr @_ZNKSt7__cxx1112basic_stringIcSt11char_traitsIcESaIcEE5c_strEv(ptr noundef nonnull align 8 dereferenceable(32) %40) #8
  call void @nvgTextBox(ptr noundef %27, float noundef %31, float noundef %35, float noundef %39, ptr noundef %41, ptr noundef null)
  br label %61

42:                                               ; preds = %2
  %43 = load ptr, ptr %4, align 8
  call void @nvgTextAlign(ptr noundef %43, i32 noundef 17)
  %44 = load ptr, ptr %4, align 8
  %45 = getelementptr inbounds %"class.nanogui::Widget", ptr %6, i32 0, i32 5
  %46 = call noundef nonnull align 4 dereferenceable(4) ptr @_ZN7nanogui5ArrayIiLm2EE1xILm2ETnNSt9enable_ifIXgeT_Li1EEiE4typeELi0EEERiv(ptr noundef nonnull align 4 dereferenceable(8) %45)
  %47 = load i32, ptr %46, align 4
  %48 = sitofp i32 %47 to float
  %49 = getelementptr inbounds %"class.nanogui::Widget", ptr %6, i32 0, i32 5
  %50 = call noundef nonnull align 4 dereferenceable(4) ptr @_ZN7nanogui5ArrayIiLm2EE1yILm2ETnNSt9enable_ifIXgeT_Li2EEiE4typeELi0EEERiv(ptr noundef nonnull align 4 dereferenceable(8) %49)
  %51 = load i32, ptr %50, align 4
  %52 = sitofp i32 %51 to float
  %53 = getelementptr inbounds %"class.nanogui::Widget", ptr %6, i32 0, i32 6
  %54 = call noundef nonnull align 4 dereferenceable(4) ptr @_ZN7nanogui5ArrayIiLm2EE1yILm2ETnNSt9enable_ifIXgeT_Li2EEiE4typeELi0EEERiv(ptr noundef nonnull align 4 dereferenceable(8) %53)
  %55 = load i32, ptr %54, align 4
  %56 = sitofp i32 %55 to float
  %57 = call float @llvm.fmuladd.f32(float %56, float 5.000000e-01, float %52)
  %58 = getelementptr inbounds %"class.nanogui::Label", ptr %6, i32 0, i32 1
  %59 = call noundef ptr @_ZNKSt7__cxx1112basic_stringIcSt11char_traitsIcESaIcEE5c_strEv(ptr noundef nonnull align 8 dereferenceable(32) %58) #8
  %60 = call float @nvgText(ptr noundef %44, float noundef %48, float noundef %57, ptr noundef %59, ptr noundef null)
  br label %61

61:                                               ; preds = %42, %25
  ret void
}