; Function Attrs: mustprogress uwtable
define hidden void @_ZN7nanogui5Label4drawEP10NVGcontext(ptr noundef nonnull align 8 dereferenceable(224) %0, ptr noundef %1) unnamed_addr #0 align 2 {
  tail call void @_ZN7nanogui6Widget4drawEP10NVGcontext(ptr noundef nonnull align 8 dereferenceable(140) %0, ptr noundef %1)
  %3 = getelementptr inbounds i8, ptr %0, i64 176
  %4 = tail call noundef ptr @_ZNKSt7__cxx1112basic_stringIcSt11char_traitsIcESaIcEE5c_strEv(ptr noundef nonnull align 8 dereferenceable(32) %3) #10
  tail call void @nvgFontFace(ptr noundef %1, ptr noundef %4)
  %5 = tail call noundef i32 @_ZNK7nanogui6Widget9font_sizeEv(ptr noundef nonnull align 8 dereferenceable(140) %0)
  %6 = sitofp i32 %5 to float
  tail call void @nvgFontSize(ptr noundef %1, float noundef %6)
  %7 = getelementptr inbounds i8, ptr %0, i64 208
  %.sroa.0.0.copyload = load <2 x float>, ptr %7, align 8
  %.sroa.2.0..sroa_idx = getelementptr inbounds i8, ptr %0, i64 216
  %.sroa.2.0.copyload = load <2 x float>, ptr %.sroa.2.0..sroa_idx, align 8
  tail call void @nvgFillColor(ptr noundef %1, <2 x float> %.sroa.0.0.copyload, <2 x float> %.sroa.2.0.copyload)
  %8 = getelementptr inbounds i8, ptr %0, i64 56
  %9 = load i32, ptr %8, align 8
  %10 = icmp sgt i32 %9, 0
  %11 = getelementptr inbounds i8, ptr %0, i64 40
  %12 = getelementptr inbounds i8, ptr %0, i64 44
  br i1 %10, label %13, label %22

13:                                               ; preds = %2
  tail call void @nvgTextAlign(ptr noundef %1, i32 noundef 9)
  %14 = load i32, ptr %11, align 8
  %15 = sitofp i32 %14 to float
  %16 = load i32, ptr %12, align 4
  %17 = sitofp i32 %16 to float
  %18 = load i32, ptr %8, align 8
  %19 = sitofp i32 %18 to float
  %20 = getelementptr inbounds i8, ptr %0, i64 144
  %21 = tail call noundef ptr @_ZNKSt7__cxx1112basic_stringIcSt11char_traitsIcESaIcEE5c_strEv(ptr noundef nonnull align 8 dereferenceable(32) %20) #10
  tail call void @nvgTextBox(ptr noundef %1, float noundef %15, float noundef %17, float noundef %19, ptr noundef %21, ptr noundef null)
  br label %34

22:                                               ; preds = %2
  tail call void @nvgTextAlign(ptr noundef %1, i32 noundef 17)
  %23 = load i32, ptr %11, align 8
  %24 = sitofp i32 %23 to float
  %25 = load i32, ptr %12, align 4
  %26 = sitofp i32 %25 to float
  %27 = getelementptr inbounds i8, ptr %0, i64 52
  %28 = load i32, ptr %27, align 4
  %29 = sitofp i32 %28 to float
  %30 = tail call float @llvm.fmuladd.f32(float %29, float 5.000000e-01, float %26)
  %31 = getelementptr inbounds i8, ptr %0, i64 144
  %32 = tail call noundef ptr @_ZNKSt7__cxx1112basic_stringIcSt11char_traitsIcESaIcEE5c_strEv(ptr noundef nonnull align 8 dereferenceable(32) %31) #10
  %33 = tail call float @nvgText(ptr noundef %1, float noundef %24, float noundef %30, ptr noundef %32, ptr noundef null)
  br label %34

34:                                               ; preds = %22, %13
  ret void
}